target datalayout = "e-m:e-p270:32:32-p271:32:32-p272:64:64-i64:64-i128:128-f80:128-n8:16:32:64-S128"
target triple = "x86_64-pc-linux-gnu"

; Function Attrs: alwaysinline nounwind willreturn memory(none) uwtable
define internal zeroext i8 @av_clip_uint8_c(i32 noundef %0) #5 {
  %2 = alloca i8, align 1
  %3 = alloca i32, align 4
  store i32 %0, ptr %3, align 4, !tbaa !38
  %4 = load i32, ptr %3, align 4, !tbaa !38
  %5 = and i32 %4, -256
  %6 = icmp ne i32 %5, 0
  br i1 %6, label %7, label %12

7:                                                ; preds = %1
  %8 = load i32, ptr %3, align 4, !tbaa !38
  %9 = xor i32 %8, -1
  %10 = ashr i32 %9, 31
  %11 = trunc i32 %10 to i8
  store i8 %11, ptr %2, align 1
  br label %15

12:                                               ; preds = %1
  %13 = load i32, ptr %3, align 4, !tbaa !38
  %14 = trunc i32 %13 to i8
  store i8 %14, ptr %2, align 1
  br label %15

15:                                               ; preds = %12, %7
  %16 = load i8, ptr %2, align 1
  ret i8 %16
}

; Function Attrs: nounwind uwtable
define internal void @vc1_inv_trans_8x4_c(ptr noundef %0, i64 noundef %1, ptr noundef %2) #1 {
  %4 = alloca ptr, align 8
  %5 = alloca i64, align 8
  %6 = alloca ptr, align 8
  %7 = alloca i32, align 4
  %8 = alloca i32, align 4
  %9 = alloca i32, align 4
  %10 = alloca i32, align 4
  %11 = alloca i32, align 4
  %12 = alloca i32, align 4
  %13 = alloca i32, align 4
  %14 = alloca i32, align 4
  %15 = alloca i32, align 4
  %16 = alloca ptr, align 8
  %17 = alloca ptr, align 8
  store ptr %0, ptr %4, align 8, !tbaa !45
  store i64 %1, ptr %5, align 8, !tbaa !47
  store ptr %2, ptr %6, align 8, !tbaa !36
  call void @llvm.lifetime.start.p0(i64 4, ptr %7) #7
  call void @llvm.lifetime.start.p0(i64 4, ptr %8) #7
  call void @llvm.lifetime.start.p0(i64 4, ptr %9) #7
  call void @llvm.lifetime.start.p0(i64 4, ptr %10) #7
  call void @llvm.lifetime.start.p0(i64 4, ptr %11) #7
  call void @llvm.lifetime.start.p0(i64 4, ptr %12) #7
  call void @llvm.lifetime.start.p0(i64 4, ptr %13) #7
  call void @llvm.lifetime.start.p0(i64 4, ptr %14) #7
  call void @llvm.lifetime.start.p0(i64 4, ptr %15) #7
  call void @llvm.lifetime.start.p0(i64 8, ptr %16) #7
  call void @llvm.lifetime.start.p0(i64 8, ptr %17) #7
  %18 = load ptr, ptr %6, align 8, !tbaa !36
  store ptr %18, ptr %16, align 8, !tbaa !36
  %19 = load ptr, ptr %6, align 8, !tbaa !36
  store ptr %19, ptr %17, align 8, !tbaa !36
  store i32 0, ptr %7, align 4, !tbaa !38
  br label %20

20:                                               ; preds = %232, %3
  %21 = load i32, ptr %7, align 4, !tbaa !38
  %22 = icmp slt i32 %21, 4
  br i1 %22, label %23, label %235

23:                                               ; preds = %20
  %24 = load ptr, ptr %16, align 8, !tbaa !36
  %25 = getelementptr inbounds i16, ptr %24, i64 0
  %26 = load i16, ptr %25, align 2, !tbaa !40
  %27 = sext i16 %26 to i32
  %28 = load ptr, ptr %16, align 8, !tbaa !36
  %29 = getelementptr inbounds i16, ptr %28, i64 4
  %30 = load i16, ptr %29, align 2, !tbaa !40
  %31 = sext i16 %30 to i32
  %32 = add nsw i32 %27, %31
  %33 = mul nsw i32 12, %32
  %34 = add nsw i32 %33, 4
  store i32 %34, ptr %8, align 4, !tbaa !38
  %35 = load ptr, ptr %16, align 8, !tbaa !36
  %36 = getelementptr inbounds i16, ptr %35, i64 0
  %37 = load i16, ptr %36, align 2, !tbaa !40
  %38 = sext i16 %37 to i32
  %39 = load ptr, ptr %16, align 8, !tbaa !36
  %40 = getelementptr inbounds i16, ptr %39, i64 4
  %41 = load i16, ptr %40, align 2, !tbaa !40
  %42 = sext i16 %41 to i32
  %43 = sub nsw i32 %38, %42
  %44 = mul nsw i32 12, %43
  %45 = add nsw i32 %44, 4
  store i32 %45, ptr %9, align 4, !tbaa !38
  %46 = load ptr, ptr %16, align 8, !tbaa !36
  %47 = getelementptr inbounds i16, ptr %46, i64 2
  %48 = load i16, ptr %47, align 2, !tbaa !40
  %49 = sext i16 %48 to i32
  %50 = mul nsw i32 16, %49
  %51 = load ptr, ptr %16, align 8, !tbaa !36
  %52 = getelementptr inbounds i16, ptr %51, i64 6
  %53 = load i16, ptr %52, align 2, !tbaa !40
  %54 = sext i16 %53 to i32
  %55 = mul nsw i32 6, %54
  %56 = add nsw i32 %50, %55
  store i32 %56, ptr %10, align 4, !tbaa !38
  %57 = load ptr, ptr %16, align 8, !tbaa !36
  %58 = getelementptr inbounds i16, ptr %57, i64 2
  %59 = load i16, ptr %58, align 2, !tbaa !40
  %60 = sext i16 %59 to i32
  %61 = mul nsw i32 6, %60
  %62 = load ptr, ptr %16, align 8, !tbaa !36
  %63 = getelementptr inbounds i16, ptr %62, i64 6
  %64 = load i16, ptr %63, align 2, !tbaa !40
  %65 = sext i16 %64 to i32
  %66 = mul nsw i32 16, %65
  %67 = sub nsw i32 %61, %66
  store i32 %67, ptr %11, align 4, !tbaa !38
  %68 = load i32, ptr %8, align 4, !tbaa !38
  %69 = load i32, ptr %10, align 4, !tbaa !38
  %70 = add nsw i32 %68, %69
  store i32 %70, ptr %12, align 4, !tbaa !38
  %71 = load i32, ptr %9, align 4, !tbaa !38
  %72 = load i32, ptr %11, align 4, !tbaa !38
  %73 = add nsw i32 %71, %72
  store i32 %73, ptr %13, align 4, !tbaa !38
  %74 = load i32, ptr %9, align 4, !tbaa !38
  %75 = load i32, ptr %11, align 4, !tbaa !38
  %76 = sub nsw i32 %74, %75
  store i32 %76, ptr %14, align 4, !tbaa !38
  %77 = load i32, ptr %8, align 4, !tbaa !38
  %78 = load i32, ptr %10, align 4, !tbaa !38
  %79 = sub nsw i32 %77, %78
  store i32 %79, ptr %15, align 4, !tbaa !38
  %80 = load ptr, ptr %16, align 8, !tbaa !36
  %81 = getelementptr inbounds i16, ptr %80, i64 1
  %82 = load i16, ptr %81, align 2, !tbaa !40
  %83 = sext i16 %82 to i32
  %84 = mul nsw i32 16, %83
  %85 = load ptr, ptr %16, align 8, !tbaa !36
  %86 = getelementptr inbounds i16, ptr %85, i64 3
  %87 = load i16, ptr %86, align 2, !tbaa !40
  %88 = sext i16 %87 to i32
  %89 = mul nsw i32 15, %88
  %90 = add nsw i32 %84, %89
  %91 = load ptr, ptr %16, align 8, !tbaa !36
  %92 = getelementptr inbounds i16, ptr %91, i64 5
  %93 = load i16, ptr %92, align 2, !tbaa !40
  %94 = sext i16 %93 to i32
  %95 = mul nsw i32 9, %94
  %96 = add nsw i32 %90, %95
  %97 = load ptr, ptr %16, align 8, !tbaa !36
  %98 = getelementptr inbounds i16, ptr %97, i64 7
  %99 = load i16, ptr %98, align 2, !tbaa !40
  %100 = sext i16 %99 to i32
  %101 = mul nsw i32 4, %100
  %102 = add nsw i32 %96, %101
  store i32 %102, ptr %8, align 4, !tbaa !38
  %103 = load ptr, ptr %16, align 8, !tbaa !36
  %104 = getelementptr inbounds i16, ptr %103, i64 1
  %105 = load i16, ptr %104, align 2, !tbaa !40
  %106 = sext i16 %105 to i32
  %107 = mul nsw i32 15, %106
  %108 = load ptr, ptr %16, align 8, !tbaa !36
  %109 = getelementptr inbounds i16, ptr %108, i64 3
  %110 = load i16, ptr %109, align 2, !tbaa !40
  %111 = sext i16 %110 to i32
  %112 = mul nsw i32 4, %111
  %113 = sub nsw i32 %107, %112
  %114 = load ptr, ptr %16, align 8, !tbaa !36
  %115 = getelementptr inbounds i16, ptr %114, i64 5
  %116 = load i16, ptr %115, align 2, !tbaa !40
  %117 = sext i16 %116 to i32
  %118 = mul nsw i32 16, %117
  %119 = sub nsw i32 %113, %118
  %120 = load ptr, ptr %16, align 8, !tbaa !36
  %121 = getelementptr inbounds i16, ptr %120, i64 7
  %122 = load i16, ptr %121, align 2, !tbaa !40
  %123 = sext i16 %122 to i32
  %124 = mul nsw i32 9, %123
  %125 = sub nsw i32 %119, %124
  store i32 %125, ptr %9, align 4, !tbaa !38
  %126 = load ptr, ptr %16, align 8, !tbaa !36
  %127 = getelementptr inbounds i16, ptr %126, i64 1
  %128 = load i16, ptr %127, align 2, !tbaa !40
  %129 = sext i16 %128 to i32
  %130 = mul nsw i32 9, %129
  %131 = load ptr, ptr %16, align 8, !tbaa !36
  %132 = getelementptr inbounds i16, ptr %131, i64 3
  %133 = load i16, ptr %132, align 2, !tbaa !40
  %134 = sext i16 %133 to i32
  %135 = mul nsw i32 16, %134
  %136 = sub nsw i32 %130, %135
  %137 = load ptr, ptr %16, align 8, !tbaa !36
  %138 = getelementptr inbounds i16, ptr %137, i64 5
  %139 = load i16, ptr %138, align 2, !tbaa !40
  %140 = sext i16 %139 to i32
  %141 = mul nsw i32 4, %140
  %142 = add nsw i32 %136, %141
  %143 = load ptr, ptr %16, align 8, !tbaa !36
  %144 = getelementptr inbounds i16, ptr %143, i64 7
  %145 = load i16, ptr %144, align 2, !tbaa !40
  %146 = sext i16 %145 to i32
  %147 = mul nsw i32 15, %146
  %148 = add nsw i32 %142, %147
  store i32 %148, ptr %10, align 4, !tbaa !38
  %149 = load ptr, ptr %16, align 8, !tbaa !36
  %150 = getelementptr inbounds i16, ptr %149, i64 1
  %151 = load i16, ptr %150, align 2, !tbaa !40
  %152 = sext i16 %151 to i32
  %153 = mul nsw i32 4, %152
  %154 = load ptr, ptr %16, align 8, !tbaa !36
  %155 = getelementptr inbounds i16, ptr %154, i64 3
  %156 = load i16, ptr %155, align 2, !tbaa !40
  %157 = sext i16 %156 to i32
  %158 = mul nsw i32 9, %157
  %159 = sub nsw i32 %153, %158
  %160 = load ptr, ptr %16, align 8, !tbaa !36
  %161 = getelementptr inbounds i16, ptr %160, i64 5
  %162 = load i16, ptr %161, align 2, !tbaa !40
  %163 = sext i16 %162 to i32
  %164 = mul nsw i32 15, %163
  %165 = add nsw i32 %159, %164
  %166 = load ptr, ptr %16, align 8, !tbaa !36
  %167 = getelementptr inbounds i16, ptr %166, i64 7
  %168 = load i16, ptr %167, align 2, !tbaa !40
  %169 = sext i16 %168 to i32
  %170 = mul nsw i32 16, %169
  %171 = sub nsw i32 %165, %170
  store i32 %171, ptr %11, align 4, !tbaa !38
  %172 = load i32, ptr %12, align 4, !tbaa !38
  %173 = load i32, ptr %8, align 4, !tbaa !38
  %174 = add nsw i32 %172, %173
  %175 = ashr i32 %174, 3
  %176 = trunc i32 %175 to i16
  %177 = load ptr, ptr %17, align 8, !tbaa !36
  %178 = getelementptr inbounds i16, ptr %177, i64 0
  store i16 %176, ptr %178, align 2, !tbaa !40
  %179 = load i32, ptr %13, align 4, !tbaa !38
  %180 = load i32, ptr %9, align 4, !tbaa !38
  %181 = add nsw i32 %179, %180
  %182 = ashr i32 %181, 3
  %183 = trunc i32 %182 to i16
  %184 = load ptr, ptr %17, align 8, !tbaa !36
  %185 = getelementptr inbounds i16, ptr %184, i64 1
  store i16 %183, ptr %185, align 2, !tbaa !40
  %186 = load i32, ptr %14, align 4, !tbaa !38
  %187 = load i32, ptr %10, align 4, !tbaa !38
  %188 = add nsw i32 %186, %187
  %189 = ashr i32 %188, 3
  %190 = trunc i32 %189 to i16
  %191 = load ptr, ptr %17, align 8, !tbaa !36
  %192 = getelementptr inbounds i16, ptr %191, i64 2
  store i16 %190, ptr %192, align 2, !tbaa !40
  %193 = load i32, ptr %15, align 4, !tbaa !38
  %194 = load i32, ptr %11, align 4, !tbaa !38
  %195 = add nsw i32 %193, %194
  %196 = ashr i32 %195, 3
  %197 = trunc i32 %196 to i16
  %198 = load ptr, ptr %17, align 8, !tbaa !36
  %199 = getelementptr inbounds i16, ptr %198, i64 3
  store i16 %197, ptr %199, align 2, !tbaa !40
  %200 = load i32, ptr %15, align 4, !tbaa !38
  %201 = load i32, ptr %11, align 4, !tbaa !38
  %202 = sub nsw i32 %200, %201
  %203 = ashr i32 %202, 3
  %204 = trunc i32 %203 to i16
  %205 = load ptr, ptr %17, align 8, !tbaa !36
  %206 = getelementptr inbounds i16, ptr %205, i64 4
  store i16 %204, ptr %206, align 2, !tbaa !40
  %207 = load i32, ptr %14, align 4, !tbaa !38
  %208 = load i32, ptr %10, align 4, !tbaa !38
  %209 = sub nsw i32 %207, %208
  %210 = ashr i32 %209, 3
  %211 = trunc i32 %210 to i16
  %212 = load ptr, ptr %17, align 8, !tbaa !36
  %213 = getelementptr inbounds i16, ptr %212, i64 5
  store i16 %211, ptr %213, align 2, !tbaa !40
  %214 = load i32, ptr %13, align 4, !tbaa !38
  %215 = load i32, ptr %9, align 4, !tbaa !38
  %216 = sub nsw i32 %214, %215
  %217 = ashr i32 %216, 3
  %218 = trunc i32 %217 to i16
  %219 = load ptr, ptr %17, align 8, !tbaa !36
  %220 = getelementptr inbounds i16, ptr %219, i64 6
  store i16 %218, ptr %220, align 2, !tbaa !40
  %221 = load i32, ptr %12, align 4, !tbaa !38
  %222 = load i32, ptr %8, align 4, !tbaa !38
  %223 = sub nsw i32 %221, %222
  %224 = ashr i32 %223, 3
  %225 = trunc i32 %224 to i16
  %226 = load ptr, ptr %17, align 8, !tbaa !36
  %227 = getelementptr inbounds i16, ptr %226, i64 7
  store i16 %225, ptr %227, align 2, !tbaa !40
  %228 = load ptr, ptr %16, align 8, !tbaa !36
  %229 = getelementptr inbounds i16, ptr %228, i64 8
  store ptr %229, ptr %16, align 8, !tbaa !36
  %230 = load ptr, ptr %17, align 8, !tbaa !36
  %231 = getelementptr inbounds i16, ptr %230, i64 8
  store ptr %231, ptr %17, align 8, !tbaa !36
  br label %232

232:                                              ; preds = %23
  %233 = load i32, ptr %7, align 4, !tbaa !38
  %234 = add nsw i32 %233, 1
  store i32 %234, ptr %7, align 4, !tbaa !38
  br label %20, !llvm.loop !52

235:                                              ; preds = %20
  %236 = load ptr, ptr %6, align 8, !tbaa !36
  store ptr %236, ptr %16, align 8, !tbaa !36
  store i32 0, ptr %7, align 4, !tbaa !38
  br label %237

237:                                              ; preds = %353, %235
  %238 = load i32, ptr %7, align 4, !tbaa !38
  %239 = icmp slt i32 %238, 8
  br i1 %239, label %240, label %356

240:                                              ; preds = %237
  %241 = load ptr, ptr %16, align 8, !tbaa !36
  %242 = getelementptr inbounds i16, ptr %241, i64 0
  %243 = load i16, ptr %242, align 2, !tbaa !40
  %244 = sext i16 %243 to i32
  %245 = load ptr, ptr %16, align 8, !tbaa !36
  %246 = getelementptr inbounds i16, ptr %245, i64 16
  %247 = load i16, ptr %246, align 2, !tbaa !40
  %248 = sext i16 %247 to i32
  %249 = add nsw i32 %244, %248
  %250 = mul nsw i32 17, %249
  %251 = add nsw i32 %250, 64
  store i32 %251, ptr %8, align 4, !tbaa !38
  %252 = load ptr, ptr %16, align 8, !tbaa !36
  %253 = getelementptr inbounds i16, ptr %252, i64 0
  %254 = load i16, ptr %253, align 2, !tbaa !40
  %255 = sext i16 %254 to i32
  %256 = load ptr, ptr %16, align 8, !tbaa !36
  %257 = getelementptr inbounds i16, ptr %256, i64 16
  %258 = load i16, ptr %257, align 2, !tbaa !40
  %259 = sext i16 %258 to i32
  %260 = sub nsw i32 %255, %259
  %261 = mul nsw i32 17, %260
  %262 = add nsw i32 %261, 64
  store i32 %262, ptr %9, align 4, !tbaa !38
  %263 = load ptr, ptr %16, align 8, !tbaa !36
  %264 = getelementptr inbounds i16, ptr %263, i64 8
  %265 = load i16, ptr %264, align 2, !tbaa !40
  %266 = sext i16 %265 to i32
  %267 = mul nsw i32 22, %266
  %268 = load ptr, ptr %16, align 8, !tbaa !36
  %269 = getelementptr inbounds i16, ptr %268, i64 24
  %270 = load i16, ptr %269, align 2, !tbaa !40
  %271 = sext i16 %270 to i32
  %272 = mul nsw i32 10, %271
  %273 = add nsw i32 %267, %272
  store i32 %273, ptr %10, align 4, !tbaa !38
  %274 = load ptr, ptr %16, align 8, !tbaa !36
  %275 = getelementptr inbounds i16, ptr %274, i64 24
  %276 = load i16, ptr %275, align 2, !tbaa !40
  %277 = sext i16 %276 to i32
  %278 = mul nsw i32 22, %277
  %279 = load ptr, ptr %16, align 8, !tbaa !36
  %280 = getelementptr inbounds i16, ptr %279, i64 8
  %281 = load i16, ptr %280, align 2, !tbaa !40
  %282 = sext i16 %281 to i32
  %283 = mul nsw i32 10, %282
  %284 = sub nsw i32 %278, %283
  store i32 %284, ptr %11, align 4, !tbaa !38
  %285 = load ptr, ptr %4, align 8, !tbaa !45
  %286 = load i64, ptr %5, align 8, !tbaa !47
  %287 = mul nsw i64 0, %286
  %288 = getelementptr inbounds i8, ptr %285, i64 %287
  %289 = load i8, ptr %288, align 1, !tbaa !50
  %290 = zext i8 %289 to i32
  %291 = load i32, ptr %8, align 4, !tbaa !38
  %292 = load i32, ptr %10, align 4, !tbaa !38
  %293 = add nsw i32 %291, %292
  %294 = ashr i32 %293, 7
  %295 = add nsw i32 %290, %294
  %296 = call zeroext i8 @av_clip_uint8_c(i32 noundef %295) #8
  %297 = load ptr, ptr %4, align 8, !tbaa !45
  %298 = load i64, ptr %5, align 8, !tbaa !47
  %299 = mul nsw i64 0, %298
  %300 = getelementptr inbounds i8, ptr %297, i64 %299
  store i8 %296, ptr %300, align 1, !tbaa !50
  %301 = load ptr, ptr %4, align 8, !tbaa !45
  %302 = load i64, ptr %5, align 8, !tbaa !47
  %303 = mul nsw i64 1, %302
  %304 = getelementptr inbounds i8, ptr %301, i64 %303
  %305 = load i8, ptr %304, align 1, !tbaa !50
  %306 = zext i8 %305 to i32
  %307 = load i32, ptr %9, align 4, !tbaa !38
  %308 = load i32, ptr %11, align 4, !tbaa !38
  %309 = sub nsw i32 %307, %308
  %310 = ashr i32 %309, 7
  %311 = add nsw i32 %306, %310
  %312 = call zeroext i8 @av_clip_uint8_c(i32 noundef %311) #8
  %313 = load ptr, ptr %4, align 8, !tbaa !45
  %314 = load i64, ptr %5, align 8, !tbaa !47
  %315 = mul nsw i64 1, %314
  %316 = getelementptr inbounds i8, ptr %313, i64 %315
  store i8 %312, ptr %316, align 1, !tbaa !50
  %317 = load ptr, ptr %4, align 8, !tbaa !45
  %318 = load i64, ptr %5, align 8, !tbaa !47
  %319 = mul nsw i64 2, %318
  %320 = getelementptr inbounds i8, ptr %317, i64 %319
  %321 = load i8, ptr %320, align 1, !tbaa !50
  %322 = zext i8 %321 to i32
  %323 = load i32, ptr %9, align 4, !tbaa !38
  %324 = load i32, ptr %11, align 4, !tbaa !38
  %325 = add nsw i32 %323, %324
  %326 = ashr i32 %325, 7
  %327 = add nsw i32 %322, %326
  %328 = call zeroext i8 @av_clip_uint8_c(i32 noundef %327) #8
  %329 = load ptr, ptr %4, align 8, !tbaa !45
  %330 = load i64, ptr %5, align 8, !tbaa !47
  %331 = mul nsw i64 2, %330
  %332 = getelementptr inbounds i8, ptr %329, i64 %331
  store i8 %328, ptr %332, align 1, !tbaa !50
  %333 = load ptr, ptr %4, align 8, !tbaa !45
  %334 = load i64, ptr %5, align 8, !tbaa !47
  %335 = mul nsw i64 3, %334
  %336 = getelementptr inbounds i8, ptr %333, i64 %335
  %337 = load i8, ptr %336, align 1, !tbaa !50
  %338 = zext i8 %337 to i32
  %339 = load i32, ptr %8, align 4, !tbaa !38
  %340 = load i32, ptr %10, align 4, !tbaa !38
  %341 = sub nsw i32 %339, %340
  %342 = ashr i32 %341, 7
  %343 = add nsw i32 %338, %342
  %344 = call zeroext i8 @av_clip_uint8_c(i32 noundef %343) #8
  %345 = load ptr, ptr %4, align 8, !tbaa !45
  %346 = load i64, ptr %5, align 8, !tbaa !47
  %347 = mul nsw i64 3, %346
  %348 = getelementptr inbounds i8, ptr %345, i64 %347
  store i8 %344, ptr %348, align 1, !tbaa !50
  %349 = load ptr, ptr %16, align 8, !tbaa !36
  %350 = getelementptr inbounds nuw i16, ptr %349, i32 1
  store ptr %350, ptr %16, align 8, !tbaa !36
  %351 = load ptr, ptr %4, align 8, !tbaa !45
  %352 = getelementptr inbounds nuw i8, ptr %351, i32 1
  store ptr %352, ptr %4, align 8, !tbaa !45
  br label %353

353:                                              ; preds = %240
  %354 = load i32, ptr %7, align 4, !tbaa !38
  %355 = add nsw i32 %354, 1
  store i32 %355, ptr %7, align 4, !tbaa !38
  br label %237, !llvm.loop !53

356:                                              ; preds = %237
  call void @llvm.lifetime.end.p0(i64 8, ptr %17) #7
  call void @llvm.lifetime.end.p0(i64 8, ptr %16) #7
  call void @llvm.lifetime.end.p0(i64 4, ptr %15) #7
  call void @llvm.lifetime.end.p0(i64 4, ptr %14) #7
  call void @llvm.lifetime.end.p0(i64 4, ptr %13) #7
  call void @llvm.lifetime.end.p0(i64 4, ptr %12) #7
  call void @llvm.lifetime.end.p0(i64 4, ptr %11) #7
  call void @llvm.lifetime.end.p0(i64 4, ptr %10) #7
  call void @llvm.lifetime.end.p0(i64 4, ptr %9) #7
  call void @llvm.lifetime.end.p0(i64 4, ptr %8) #7
  call void @llvm.lifetime.end.p0(i64 4, ptr %7) #7
  ret void
}