; Function Attrs: nofree norecurse nosync nounwind memory(argmem: readwrite) uwtable
define internal void @vc1_inv_trans_8x4_c(ptr noundef captures(none) %0, i64 noundef %1, ptr noundef captures(none) %2) #1 {
  br label %6

.preheader:                                       ; preds = %6
  %4 = shl nsw i64 %1, 1
  %5 = mul nsw i64 %1, 3
  br label %98

6:                                                ; preds = %3, %6
  %.0120 = phi ptr [ %2, %3 ], [ %96, %6 ]
  %.0100118 = phi i32 [ 0, %3 ], [ %97, %6 ]
  %7 = load i16, ptr %.0120, align 2, !tbaa !34
  %8 = sext i16 %7 to i32
  %9 = getelementptr inbounds nuw i8, ptr %.0120, i64 8
  %10 = load i16, ptr %9, align 2, !tbaa !34
  %11 = sext i16 %10 to i32
  %12 = add nsw i32 %11, %8
  %13 = mul nsw i32 %12, 12
  %14 = add nsw i32 %13, 4
  %15 = sub nsw i32 %8, %11
  %16 = mul nsw i32 %15, 12
  %17 = add nsw i32 %16, 4
  %18 = getelementptr inbounds nuw i8, ptr %.0120, i64 4
  %19 = load i16, ptr %18, align 2, !tbaa !34
  %20 = sext i16 %19 to i32
  %21 = shl nsw i32 %20, 4
  %22 = getelementptr inbounds nuw i8, ptr %.0120, i64 12
  %23 = load i16, ptr %22, align 2, !tbaa !34
  %24 = sext i16 %23 to i32
  %25 = mul nsw i32 %24, 6
  %26 = add nsw i32 %25, %21
  %27 = mul nsw i32 %20, 6
  %28 = shl nsw i32 %24, 4
  %29 = sub nsw i32 %27, %28
  %30 = add nsw i32 %26, %14
  %31 = add nsw i32 %29, %17
  %32 = sub nsw i32 %17, %29
  %33 = sub nsw i32 %14, %26
  %34 = getelementptr inbounds nuw i8, ptr %.0120, i64 2
  %35 = load i16, ptr %34, align 2, !tbaa !34
  %36 = sext i16 %35 to i32
  %37 = shl nsw i32 %36, 4
  %38 = getelementptr inbounds nuw i8, ptr %.0120, i64 6
  %39 = load i16, ptr %38, align 2, !tbaa !34
  %40 = sext i16 %39 to i32
  %41 = mul nsw i32 %40, 15
  %42 = add nsw i32 %41, %37
  %43 = getelementptr inbounds nuw i8, ptr %.0120, i64 10
  %44 = load i16, ptr %43, align 2, !tbaa !34
  %45 = sext i16 %44 to i32
  %46 = mul nsw i32 %45, 9
  %47 = add nsw i32 %42, %46
  %48 = getelementptr inbounds nuw i8, ptr %.0120, i64 14
  %49 = load i16, ptr %48, align 2, !tbaa !34
  %50 = sext i16 %49 to i32
  %51 = shl nsw i32 %50, 2
  %52 = add nsw i32 %47, %51
  %53 = mul nsw i32 %36, 15
  %.neg102 = mul nsw i32 %50, -9
  %54 = shl nsw i32 %40, 2
  %55 = shl nsw i32 %45, 4
  %56 = add nsw i32 %54, %55
  %57 = sub nsw i32 %53, %56
  %58 = add nsw i32 %57, %.neg102
  %59 = mul nsw i32 %36, 9
  %60 = shl nsw i32 %40, 4
  %61 = sub nsw i32 %59, %60
  %62 = shl nsw i32 %45, 2
  %63 = add nsw i32 %61, %62
  %64 = mul nsw i32 %50, 15
  %65 = add nsw i32 %63, %64
  %66 = shl nsw i32 %36, 2
  %.neg103 = mul nsw i32 %40, -9
  %67 = add nsw i32 %.neg103, %66
  %68 = mul nsw i32 %45, 15
  %69 = add nsw i32 %67, %68
  %70 = shl nsw i32 %50, 4
  %71 = sub nsw i32 %69, %70
  %72 = add nsw i32 %52, %30
  %73 = lshr i32 %72, 3
  %74 = trunc i32 %73 to i16
  store i16 %74, ptr %.0120, align 2, !tbaa !34
  %75 = add nsw i32 %58, %31
  %76 = lshr i32 %75, 3
  %77 = trunc i32 %76 to i16
  store i16 %77, ptr %34, align 2, !tbaa !34
  %78 = add nsw i32 %65, %32
  %79 = lshr i32 %78, 3
  %80 = trunc i32 %79 to i16
  store i16 %80, ptr %18, align 2, !tbaa !34
  %81 = add nsw i32 %71, %33
  %82 = lshr i32 %81, 3
  %83 = trunc i32 %82 to i16
  store i16 %83, ptr %38, align 2, !tbaa !34
  %84 = sub nsw i32 %33, %71
  %85 = lshr i32 %84, 3
  %86 = trunc i32 %85 to i16
  store i16 %86, ptr %9, align 2, !tbaa !34
  %87 = sub nsw i32 %32, %65
  %88 = lshr i32 %87, 3
  %89 = trunc i32 %88 to i16
  store i16 %89, ptr %43, align 2, !tbaa !34
  %90 = sub nsw i32 %31, %58
  %91 = lshr i32 %90, 3
  %92 = trunc i32 %91 to i16
  store i16 %92, ptr %22, align 2, !tbaa !34
  %93 = sub nsw i32 %30, %52
  %94 = lshr i32 %93, 3
  %95 = trunc i32 %94 to i16
  store i16 %95, ptr %48, align 2, !tbaa !34
  %96 = getelementptr i8, ptr %.0120, i64 16
  %97 = add nuw nsw i32 %.0100118, 1
  %exitcond.not = icmp eq i32 %97, 4
  br i1 %exitcond.not, label %.preheader, label %6, !llvm.loop !42

98:                                               ; preds = %.preheader, %98
  %.1123 = phi ptr [ %2, %.preheader ], [ %152, %98 ]
  %.099122 = phi ptr [ %0, %.preheader ], [ %153, %98 ]
  %.1101121 = phi i32 [ 0, %.preheader ], [ %154, %98 ]
  %99 = load i16, ptr %.1123, align 2, !tbaa !34
  %100 = sext i16 %99 to i32
  %101 = getelementptr inbounds nuw i8, ptr %.1123, i64 32
  %102 = load i16, ptr %101, align 2, !tbaa !34
  %103 = sext i16 %102 to i32
  %104 = add nsw i32 %103, %100
  %105 = mul nsw i32 %104, 17
  %106 = add nsw i32 %105, 64
  %107 = sub nsw i32 %100, %103
  %108 = mul nsw i32 %107, 17
  %109 = add nsw i32 %108, 64
  %110 = getelementptr inbounds nuw i8, ptr %.1123, i64 16
  %111 = load i16, ptr %110, align 2, !tbaa !34
  %112 = sext i16 %111 to i32
  %113 = mul nsw i32 %112, 22
  %114 = getelementptr inbounds nuw i8, ptr %.1123, i64 48
  %115 = load i16, ptr %114, align 2, !tbaa !34
  %116 = sext i16 %115 to i32
  %117 = mul nsw i32 %116, 10
  %118 = add nsw i32 %117, %113
  %119 = mul nsw i32 %116, 22
  %.neg = mul nsw i32 %112, -10
  %120 = add nsw i32 %119, %.neg
  %121 = load i8, ptr %.099122, align 1, !tbaa !40
  %122 = zext i8 %121 to i32
  %123 = add nsw i32 %118, %106
  %124 = ashr i32 %123, 7
  %125 = add nsw i32 %124, %122
  %.not.i = icmp ult i32 %125, 256
  %isnotneg.i = icmp sgt i32 %125, -1
  %126 = sext i1 %isnotneg.i to i8
  %127 = trunc nuw i32 %125 to i8
  %.0.i = select i1 %.not.i, i8 %127, i8 %126
  store i8 %.0.i, ptr %.099122, align 1, !tbaa !40
  %128 = getelementptr inbounds i8, ptr %.099122, i64 %1
  %129 = load i8, ptr %128, align 1, !tbaa !40
  %130 = zext i8 %129 to i32
  %131 = sub nsw i32 %109, %120
  %132 = ashr i32 %131, 7
  %133 = add nsw i32 %132, %130
  %.not.i104 = icmp ult i32 %133, 256
  %isnotneg.i105 = icmp sgt i32 %133, -1
  %134 = sext i1 %isnotneg.i105 to i8
  %135 = trunc nuw i32 %133 to i8
  %.0.i106 = select i1 %.not.i104, i8 %135, i8 %134
  store i8 %.0.i106, ptr %128, align 1, !tbaa !40
  %136 = getelementptr inbounds i8, ptr %.099122, i64 %4
  %137 = load i8, ptr %136, align 1, !tbaa !40
  %138 = zext i8 %137 to i32
  %139 = add nsw i32 %120, %109
  %140 = ashr i32 %139, 7
  %141 = add nsw i32 %140, %138
  %.not.i107 = icmp ult i32 %141, 256
  %isnotneg.i108 = icmp sgt i32 %141, -1
  %142 = sext i1 %isnotneg.i108 to i8
  %143 = trunc nuw i32 %141 to i8
  %.0.i109 = select i1 %.not.i107, i8 %143, i8 %142
  store i8 %.0.i109, ptr %136, align 1, !tbaa !40
  %144 = getelementptr inbounds i8, ptr %.099122, i64 %5
  %145 = load i8, ptr %144, align 1, !tbaa !40
  %146 = zext i8 %145 to i32
  %147 = sub nsw i32 %106, %118
  %148 = ashr i32 %147, 7
  %149 = add nsw i32 %148, %146
  %.not.i110 = icmp ult i32 %149, 256
  %isnotneg.i111 = icmp sgt i32 %149, -1
  %150 = sext i1 %isnotneg.i111 to i8
  %151 = trunc nuw i32 %149 to i8
  %.0.i112 = select i1 %.not.i110, i8 %151, i8 %150
  store i8 %.0.i112, ptr %144, align 1, !tbaa !40
  %152 = getelementptr inbounds nuw i8, ptr %.1123, i64 2
  %153 = getelementptr inbounds nuw i8, ptr %.099122, i64 1
  %154 = add nuw nsw i32 %.1101121, 1
  %exitcond126.not = icmp eq i32 %154, 8
  br i1 %exitcond126.not, label %155, label %98, !llvm.loop !43

155:                                              ; preds = %98
  ret void
}